target datalayout = "e-m:e-p270:32:32-p271:32:32-p272:64:64-i64:64-i128:128-f80:128-n8:16:32:64-S128"
target triple = "x86_64-pc-linux-gnu"

; Function Attrs: nounwind uwtable
define internal i32 @intra_edge_filter_strength(i32 noundef %0, i32 noundef %1, i32 noundef %2, i32 noundef %3) #0 {
  %5 = alloca i32, align 4
  %6 = alloca i32, align 4
  %7 = alloca i32, align 4
  %8 = alloca i32, align 4
  %9 = alloca i32, align 4
  %10 = alloca i32, align 4
  %11 = alloca i32, align 4
  store i32 %0, ptr %5, align 4
  store i32 %1, ptr %6, align 4
  store i32 %2, ptr %7, align 4
  store i32 %3, ptr %8, align 4
  %12 = load i32, ptr %7, align 4
  %13 = call i32 @llvm.abs.i32(i32 %12, i1 true)
  store i32 %13, ptr %9, align 4
  store i32 0, ptr %10, align 4
  %14 = load i32, ptr %5, align 4
  %15 = load i32, ptr %6, align 4
  %16 = add nsw i32 %14, %15
  store i32 %16, ptr %11, align 4
  %17 = load i32, ptr %8, align 4
  %18 = icmp eq i32 %17, 0
  br i1 %18, label %19, label %85

19:                                               ; preds = %4
  %20 = load i32, ptr %11, align 4
  %21 = icmp sle i32 %20, 8
  br i1 %21, label %22, label %27

22:                                               ; preds = %19
  %23 = load i32, ptr %9, align 4
  %24 = icmp sge i32 %23, 56
  br i1 %24, label %25, label %26

25:                                               ; preds = %22
  store i32 1, ptr %10, align 4
  br label %26

26:                                               ; preds = %25, %22
  br label %84

27:                                               ; preds = %19
  %28 = load i32, ptr %11, align 4
  %29 = icmp sle i32 %28, 12
  br i1 %29, label %30, label %35

30:                                               ; preds = %27
  %31 = load i32, ptr %9, align 4
  %32 = icmp sge i32 %31, 40
  br i1 %32, label %33, label %34

33:                                               ; preds = %30
  store i32 1, ptr %10, align 4
  br label %34

34:                                               ; preds = %33, %30
  br label %83

35:                                               ; preds = %27
  %36 = load i32, ptr %11, align 4
  %37 = icmp sle i32 %36, 16
  br i1 %37, label %38, label %43

38:                                               ; preds = %35
  %39 = load i32, ptr %9, align 4
  %40 = icmp sge i32 %39, 40
  br i1 %40, label %41, label %42

41:                                               ; preds = %38
  store i32 1, ptr %10, align 4
  br label %42

42:                                               ; preds = %41, %38
  br label %82

43:                                               ; preds = %35
  %44 = load i32, ptr %11, align 4
  %45 = icmp sle i32 %44, 24
  br i1 %45, label %46, label %59

46:                                               ; preds = %43
  %47 = load i32, ptr %9, align 4
  %48 = icmp sge i32 %47, 8
  br i1 %48, label %49, label %50

49:                                               ; preds = %46
  store i32 1, ptr %10, align 4
  br label %50

50:                                               ; preds = %49, %46
  %51 = load i32, ptr %9, align 4
  %52 = icmp sge i32 %51, 16
  br i1 %52, label %53, label %54

53:                                               ; preds = %50
  store i32 2, ptr %10, align 4
  br label %54

54:                                               ; preds = %53, %50
  %55 = load i32, ptr %9, align 4
  %56 = icmp sge i32 %55, 32
  br i1 %56, label %57, label %58

57:                                               ; preds = %54
  store i32 3, ptr %10, align 4
  br label %58

58:                                               ; preds = %57, %54
  br label %81

59:                                               ; preds = %43
  %60 = load i32, ptr %11, align 4
  %61 = icmp sle i32 %60, 32
  br i1 %61, label %62, label %75

62:                                               ; preds = %59
  %63 = load i32, ptr %9, align 4
  %64 = icmp sge i32 %63, 1
  br i1 %64, label %65, label %66

65:                                               ; preds = %62
  store i32 1, ptr %10, align 4
  br label %66

66:                                               ; preds = %65, %62
  %67 = load i32, ptr %9, align 4
  %68 = icmp sge i32 %67, 4
  br i1 %68, label %69, label %70

69:                                               ; preds = %66
  store i32 2, ptr %10, align 4
  br label %70

70:                                               ; preds = %69, %66
  %71 = load i32, ptr %9, align 4
  %72 = icmp sge i32 %71, 32
  br i1 %72, label %73, label %74

73:                                               ; preds = %70
  store i32 3, ptr %10, align 4
  br label %74

74:                                               ; preds = %73, %70
  br label %80

75:                                               ; preds = %59
  %76 = load i32, ptr %9, align 4
  %77 = icmp sge i32 %76, 1
  br i1 %77, label %78, label %79

78:                                               ; preds = %75
  store i32 3, ptr %10, align 4
  br label %79

79:                                               ; preds = %78, %75
  br label %80

80:                                               ; preds = %79, %74
  br label %81

81:                                               ; preds = %80, %58
  br label %82

82:                                               ; preds = %81, %42
  br label %83

83:                                               ; preds = %82, %34
  br label %84

84:                                               ; preds = %83, %26
  br label %125

85:                                               ; preds = %4
  %86 = load i32, ptr %11, align 4
  %87 = icmp sle i32 %86, 8
  br i1 %87, label %88, label %97

88:                                               ; preds = %85
  %89 = load i32, ptr %9, align 4
  %90 = icmp sge i32 %89, 40
  br i1 %90, label %91, label %92

91:                                               ; preds = %88
  store i32 1, ptr %10, align 4
  br label %92

92:                                               ; preds = %91, %88
  %93 = load i32, ptr %9, align 4
  %94 = icmp sge i32 %93, 64
  br i1 %94, label %95, label %96

95:                                               ; preds = %92
  store i32 2, ptr %10, align 4
  br label %96

96:                                               ; preds = %95, %92
  br label %124

97:                                               ; preds = %85
  %98 = load i32, ptr %11, align 4
  %99 = icmp sle i32 %98, 16
  br i1 %99, label %100, label %109

100:                                              ; preds = %97
  %101 = load i32, ptr %9, align 4
  %102 = icmp sge i32 %101, 20
  br i1 %102, label %103, label %104

103:                                              ; preds = %100
  store i32 1, ptr %10, align 4
  br label %104

104:                                              ; preds = %103, %100
  %105 = load i32, ptr %9, align 4
  %106 = icmp sge i32 %105, 48
  br i1 %106, label %107, label %108

107:                                              ; preds = %104
  store i32 2, ptr %10, align 4
  br label %108

108:                                              ; preds = %107, %104
  br label %123

109:                                              ; preds = %97
  %110 = load i32, ptr %11, align 4
  %111 = icmp sle i32 %110, 24
  br i1 %111, label %112, label %117

112:                                              ; preds = %109
  %113 = load i32, ptr %9, align 4
  %114 = icmp sge i32 %113, 4
  br i1 %114, label %115, label %116

115:                                              ; preds = %112
  store i32 3, ptr %10, align 4
  br label %116

116:                                              ; preds = %115, %112
  br label %122

117:                                              ; preds = %109
  %118 = load i32, ptr %9, align 4
  %119 = icmp sge i32 %118, 1
  br i1 %119, label %120, label %121

120:                                              ; preds = %117
  store i32 3, ptr %10, align 4
  br label %121

121:                                              ; preds = %120, %117
  br label %122

122:                                              ; preds = %121, %116
  br label %123

123:                                              ; preds = %122, %108
  br label %124

124:                                              ; preds = %123, %96
  br label %125

125:                                              ; preds = %124, %84
  %126 = load i32, ptr %10, align 4
  ret i32 %126
}