; Function Attrs: mustprogress nofree norecurse nosync nounwind willreturn memory(none) uwtable
define internal fastcc range(i32 0, 4) i32 @intra_edge_filter_strength(i32 noundef %0, i32 noundef %1, i32 noundef %2, i32 noundef %3) unnamed_addr #7 {
  %5 = tail call i32 @llvm.abs.i32(i32 %2, i1 true)
  %6 = add nsw i32 %1, %0
  %7 = icmp eq i32 %3, 0
  %8 = icmp slt i32 %6, 9
  br i1 %7, label %9, label %32

9:                                                ; preds = %4
  br i1 %8, label %10, label %12

10:                                               ; preds = %9
  %11 = icmp ugt i32 %5, 55
  %spec.select = zext i1 %11 to i32
  br label %46

12:                                               ; preds = %9
  %13 = icmp ult i32 %6, 13
  br i1 %13, label %14, label %16

14:                                               ; preds = %12
  %15 = icmp ugt i32 %5, 39
  %spec.select33 = zext i1 %15 to i32
  br label %46

16:                                               ; preds = %12
  %17 = icmp ult i32 %6, 17
  br i1 %17, label %18, label %20

18:                                               ; preds = %16
  %19 = icmp ugt i32 %5, 39
  %spec.select34 = zext i1 %19 to i32
  br label %46

20:                                               ; preds = %16
  %21 = icmp ult i32 %6, 25
  br i1 %21, label %22, label %26

22:                                               ; preds = %20
  %23 = icmp ugt i32 %5, 7
  %spec.select35 = zext i1 %23 to i32
  %24 = icmp ugt i32 %5, 15
  %.1 = select i1 %24, i32 2, i32 %spec.select35
  %25 = icmp ugt i32 %5, 31
  %spec.select44 = select i1 %25, i32 3, i32 %.1
  br label %46

26:                                               ; preds = %20
  %27 = icmp ult i32 %6, 33
  br i1 %27, label %28, label %31

28:                                               ; preds = %26
  %.not32 = icmp ne i32 %2, 0
  %spec.select36 = zext i1 %.not32 to i32
  %29 = icmp ugt i32 %5, 3
  %.3 = select i1 %29, i32 2, i32 %spec.select36
  %30 = icmp ugt i32 %5, 31
  %spec.select45 = select i1 %30, i32 3, i32 %.3
  br label %46

31:                                               ; preds = %26
  %.not31 = icmp eq i32 %2, 0
  %spec.select37 = select i1 %.not31, i32 0, i32 3
  br label %46

32:                                               ; preds = %4
  br i1 %8, label %33, label %36

33:                                               ; preds = %32
  %34 = icmp ugt i32 %5, 39
  %spec.select38 = zext i1 %34 to i32
  %35 = icmp ugt i32 %5, 63
  %spec.select42 = select i1 %35, i32 2, i32 %spec.select38
  br label %46

36:                                               ; preds = %32
  %37 = icmp ult i32 %6, 17
  br i1 %37, label %38, label %41

38:                                               ; preds = %36
  %39 = icmp ugt i32 %5, 19
  %spec.select39 = zext i1 %39 to i32
  %40 = icmp ugt i32 %5, 47
  %spec.select43 = select i1 %40, i32 2, i32 %spec.select39
  br label %46

41:                                               ; preds = %36
  %42 = icmp ult i32 %6, 25
  br i1 %42, label %43, label %45

43:                                               ; preds = %41
  %44 = icmp ugt i32 %5, 3
  %spec.select40 = select i1 %44, i32 3, i32 0
  br label %46

45:                                               ; preds = %41
  %.not = icmp eq i32 %2, 0
  %spec.select41 = select i1 %.not, i32 0, i32 3
  br label %46

46:                                               ; preds = %28, %22, %38, %33, %45, %43, %31, %18, %14, %10
  %.4 = phi i32 [ %spec.select, %10 ], [ %spec.select33, %14 ], [ %spec.select34, %18 ], [ %spec.select37, %31 ], [ %spec.select40, %43 ], [ %spec.select41, %45 ], [ %spec.select42, %33 ], [ %spec.select43, %38 ], [ %spec.select44, %22 ], [ %spec.select45, %28 ]
  ret i32 %.4
}